target datalayout = "e-m:e-p270:32:32-p271:32:32-p272:64:64-i64:64-i128:128-f80:128-n8:16:32:64-S128"
target triple = "x86_64-pc-linux-gnu"

%struct.URLContext = type { ptr, ptr, ptr, ptr, i32, i32, i32, i32, %struct.AVIOInterruptCB, i64, ptr, ptr, i32 }
%struct.AVIOInterruptCB = type { ptr, ptr }
%struct.SCTPContext = type { ptr, i32, i32, i32, i32, i32, %struct.sockaddr_storage }
%struct.sockaddr_storage = type { i16, [118 x i8], i64 }
%struct.sctp_sndrcvinfo = type { i16, i16, i16, i32, i32, i32, i32, i32, i32 }
%struct.pollfd = type { i32, i16, i16 }
%struct.iovec = type { ptr, i64 }
%struct.msghdr = type { ptr, i32, ptr, i64, ptr, i64, i32 }
%struct.cmsghdr = type { i64, i32, i32, [0 x i8] }

@.str.8 = private unnamed_addr constant [16 x i8] c"bad input data\0A\00", align 1

; Function Attrs: nounwind uwtable
define internal i32 @ff_sctp_send(i32 noundef %0, ptr noundef %1, i64 noundef %2, ptr noundef %3, i32 noundef %4) #0 {
  %6 = alloca i32, align 4
  %7 = alloca ptr, align 8
  %8 = alloca i64, align 8
  %9 = alloca ptr, align 8
  %10 = alloca i32, align 4
  %11 = alloca %struct.msghdr, align 8
  %12 = alloca %struct.iovec, align 8
  %13 = alloca [48 x i8], align 16
  %14 = alloca ptr, align 8
  store i32 %0, ptr %6, align 4, !tbaa !11
  store ptr %1, ptr %7, align 8, !tbaa !52
  store i64 %2, ptr %8, align 8, !tbaa !53
  store ptr %3, ptr %9, align 8, !tbaa !57
  store i32 %4, ptr %10, align 4, !tbaa !11
  call void @llvm.lifetime.start.p0(i64 56, ptr %11) #10
  call void @llvm.memset.p0.i64(ptr align 8 %11, i8 0, i64 56, i1 false)
  call void @llvm.lifetime.start.p0(i64 16, ptr %12) #10
  %15 = getelementptr inbounds nuw %struct.msghdr, ptr %11, i32 0, i32 0
  store ptr null, ptr %15, align 8, !tbaa !64
  %16 = getelementptr inbounds nuw %struct.msghdr, ptr %11, i32 0, i32 1
  store i32 0, ptr %16, align 8, !tbaa !67
  %17 = getelementptr inbounds nuw %struct.msghdr, ptr %11, i32 0, i32 2
  store ptr %12, ptr %17, align 8, !tbaa !68
  %18 = load ptr, ptr %7, align 8, !tbaa !52
  %19 = getelementptr inbounds nuw %struct.iovec, ptr %12, i32 0, i32 0
  store ptr %18, ptr %19, align 8, !tbaa !61
  %20 = load i64, ptr %8, align 8, !tbaa !53
  %21 = getelementptr inbounds nuw %struct.iovec, ptr %12, i32 0, i32 1
  store i64 %20, ptr %21, align 8, !tbaa !63
  %22 = getelementptr inbounds nuw %struct.msghdr, ptr %11, i32 0, i32 3
  store i64 1, ptr %22, align 8, !tbaa !69
  %23 = getelementptr inbounds nuw %struct.msghdr, ptr %11, i32 0, i32 5
  store i64 0, ptr %23, align 8, !tbaa !71
  %24 = load ptr, ptr %9, align 8, !tbaa !57
  %25 = icmp ne ptr %24, null
  br i1 %25, label %26, label %54

26:                                               ; preds = %5
  call void @llvm.lifetime.start.p0(i64 48, ptr %13) #10
  call void @llvm.lifetime.start.p0(i64 8, ptr %14) #10
  %27 = getelementptr inbounds [48 x i8], ptr %13, i64 0, i64 0
  %28 = getelementptr inbounds nuw %struct.msghdr, ptr %11, i32 0, i32 4
  store ptr %27, ptr %28, align 8, !tbaa !70
  %29 = getelementptr inbounds nuw %struct.msghdr, ptr %11, i32 0, i32 5
  store i64 48, ptr %29, align 8, !tbaa !71
  %30 = getelementptr inbounds nuw %struct.msghdr, ptr %11, i32 0, i32 6
  store i32 0, ptr %30, align 8, !tbaa !72
  %31 = getelementptr inbounds nuw %struct.msghdr, ptr %11, i32 0, i32 5
  %32 = load i64, ptr %31, align 8, !tbaa !71
  %33 = icmp uge i64 %32, 16
  br i1 %33, label %34, label %37

34:                                               ; preds = %26
  %35 = getelementptr inbounds nuw %struct.msghdr, ptr %11, i32 0, i32 4
  %36 = load ptr, ptr %35, align 8, !tbaa !70
  br label %38

37:                                               ; preds = %26
  br label %38

38:                                               ; preds = %37, %34
  %39 = phi ptr [ %36, %34 ], [ null, %37 ]
  store ptr %39, ptr %14, align 8, !tbaa !59
  %40 = load ptr, ptr %14, align 8, !tbaa !59
  %41 = getelementptr inbounds nuw %struct.cmsghdr, ptr %40, i32 0, i32 1
  store i32 132, ptr %41, align 8, !tbaa !11
  %42 = load ptr, ptr %14, align 8, !tbaa !59
  %43 = getelementptr inbounds nuw %struct.cmsghdr, ptr %42, i32 0, i32 2
  store i32 1, ptr %43, align 4, !tbaa !11
  %44 = load ptr, ptr %14, align 8, !tbaa !59
  %45 = getelementptr inbounds nuw %struct.cmsghdr, ptr %44, i32 0, i32 0
  store i64 48, ptr %45, align 8, !tbaa !53
  %46 = load ptr, ptr %14, align 8, !tbaa !59
  %47 = getelementptr inbounds nuw %struct.cmsghdr, ptr %46, i32 0, i32 0
  %48 = load i64, ptr %47, align 8, !tbaa !53
  %49 = getelementptr inbounds nuw %struct.msghdr, ptr %11, i32 0, i32 5
  store i64 %48, ptr %49, align 8, !tbaa !71
  %50 = load ptr, ptr %14, align 8, !tbaa !59
  %51 = getelementptr inbounds nuw %struct.cmsghdr, ptr %50, i32 0, i32 3
  %52 = getelementptr inbounds [0 x i8], ptr %51, i64 0, i64 0
  %53 = load ptr, ptr %9, align 8, !tbaa !57
  call void @llvm.memcpy.p0.p0.i64(ptr align 8 %52, ptr align 4 %53, i64 32, i1 false)
  call void @llvm.lifetime.end.p0(i64 8, ptr %14) #10
  call void @llvm.lifetime.end.p0(i64 48, ptr %13) #10
  br label %54

54:                                               ; preds = %38, %5
  %55 = load i32, ptr %6, align 4, !tbaa !11
  %56 = load i32, ptr %10, align 4, !tbaa !11
  %57 = or i32 %56, 16384
  %58 = call i64 @sendmsg(i32 noundef %55, ptr noundef %11, i32 noundef %57)
  %59 = trunc i64 %58 to i32
  call void @llvm.lifetime.end.p0(i64 16, ptr %12) #10
  call void @llvm.lifetime.end.p0(i64 56, ptr %11) #10
  ret i32 %59
}

; Function Attrs: alwaysinline nounwind willreturn memory(none) uwtable
define internal zeroext i16 @av_bswap16(i16 noundef zeroext %0) #7 {
  %2 = alloca i16, align 2
  store i16 %0, ptr %2, align 2, !tbaa !75
  %3 = load i16, ptr %2, align 2, !tbaa !75
  %4 = zext i16 %3 to i32
  %5 = ashr i32 %4, 8
  %6 = load i16, ptr %2, align 2, !tbaa !75
  %7 = zext i16 %6 to i32
  %8 = shl i32 %7, 8
  %9 = or i32 %5, %8
  %10 = trunc i32 %9 to i16
  store i16 %10, ptr %2, align 2, !tbaa !75
  %11 = load i16, ptr %2, align 2, !tbaa !75
  ret i16 %11
}

; Function Attrs: nounwind uwtable
define internal i32 @sctp_wait_fd(i32 noundef %0, i32 noundef %1) #0 {
  %3 = alloca i32, align 4
  %4 = alloca i32, align 4
  %5 = alloca i32, align 4
  %6 = alloca %struct.pollfd, align 4
  %7 = alloca i32, align 4
  store i32 %0, ptr %3, align 4, !tbaa !11
  store i32 %1, ptr %4, align 4, !tbaa !11
  call void @llvm.lifetime.start.p0(i64 4, ptr %5) #10
  %8 = load i32, ptr %4, align 4, !tbaa !11
  %9 = icmp ne i32 %8, 0
  %10 = select i1 %9, i32 4, i32 1
  store i32 %10, ptr %5, align 4, !tbaa !11
  call void @llvm.lifetime.start.p0(i64 8, ptr %6) #10
  %11 = getelementptr inbounds nuw %struct.pollfd, ptr %6, i32 0, i32 0
  %12 = load i32, ptr %3, align 4, !tbaa !11
  store i32 %12, ptr %11, align 4, !tbaa !48
  %13 = getelementptr inbounds nuw %struct.pollfd, ptr %6, i32 0, i32 1
  %14 = load i32, ptr %5, align 4, !tbaa !11
  %15 = trunc i32 %14 to i16
  store i16 %15, ptr %13, align 4, !tbaa !50
  %16 = getelementptr inbounds nuw %struct.pollfd, ptr %6, i32 0, i32 2
  store i16 0, ptr %16, align 2, !tbaa !51
  call void @llvm.lifetime.start.p0(i64 4, ptr %7) #10
  %17 = call i32 @poll(ptr noundef %6, i64 noundef 1, i32 noundef 100)
  store i32 %17, ptr %7, align 4, !tbaa !11
  %18 = load i32, ptr %7, align 4, !tbaa !11
  %19 = icmp slt i32 %18, 0
  br i1 %19, label %20, label %24

20:                                               ; preds = %2
  %21 = call ptr @__errno_location() #12
  %22 = load i32, ptr %21, align 4, !tbaa !11
  %23 = sub nsw i32 0, %22
  br label %32

24:                                               ; preds = %2
  %25 = getelementptr inbounds nuw %struct.pollfd, ptr %6, i32 0, i32 2
  %26 = load i16, ptr %25, align 2, !tbaa !51
  %27 = sext i16 %26 to i32
  %28 = load i32, ptr %5, align 4, !tbaa !11
  %29 = and i32 %27, %28
  %30 = icmp ne i32 %29, 0
  %31 = select i1 %30, i32 0, i32 -11
  br label %32

32:                                               ; preds = %24, %20
  %33 = phi i32 [ %23, %20 ], [ %31, %24 ]
  call void @llvm.lifetime.end.p0(i64 4, ptr %7) #10
  call void @llvm.lifetime.end.p0(i64 8, ptr %6) #10
  call void @llvm.lifetime.end.p0(i64 4, ptr %5) #10
  ret i32 %33
}

; Function Attrs: nounwind uwtable
define internal i32 @sctp_write(ptr noundef %0, ptr noundef %1, i32 noundef %2) #0 {
  %4 = alloca i32, align 4
  %5 = alloca ptr, align 8
  %6 = alloca ptr, align 8
  %7 = alloca i32, align 4
  %8 = alloca ptr, align 8
  %9 = alloca i32, align 4
  %10 = alloca i32, align 4
  %11 = alloca %struct.sctp_sndrcvinfo, align 4
  store ptr %0, ptr %5, align 8, !tbaa !4
  store ptr %1, ptr %6, align 8, !tbaa !9
  store i32 %2, ptr %7, align 4, !tbaa !11
  call void @llvm.lifetime.start.p0(i64 8, ptr %8) #10
  %12 = load ptr, ptr %5, align 8, !tbaa !4
  %13 = getelementptr inbounds nuw %struct.URLContext, ptr %12, i32 0, i32 2
  %14 = load ptr, ptr %13, align 8, !tbaa !13
  store ptr %14, ptr %8, align 8, !tbaa !19
  call void @llvm.lifetime.start.p0(i64 4, ptr %9) #10
  %15 = load ptr, ptr %5, align 8, !tbaa !4
  %16 = getelementptr inbounds nuw %struct.URLContext, ptr %15, i32 0, i32 4
  %17 = load i32, ptr %16, align 8, !tbaa !44
  %18 = and i32 %17, 8
  %19 = icmp ne i32 %18, 0
  br i1 %19, label %30, label %20

20:                                               ; preds = %3
  %21 = load ptr, ptr %8, align 8, !tbaa !19
  %22 = getelementptr inbounds nuw %struct.SCTPContext, ptr %21, i32 0, i32 1
  %23 = load i32, ptr %22, align 8, !tbaa !43
  %24 = call i32 @sctp_wait_fd(i32 noundef %23, i32 noundef 1)
  store i32 %24, ptr %9, align 4, !tbaa !11
  %25 = load i32, ptr %9, align 4, !tbaa !11
  %26 = icmp slt i32 %25, 0
  br i1 %26, label %27, label %29

27:                                               ; preds = %20
  %28 = load i32, ptr %9, align 4, !tbaa !11
  store i32 %28, ptr %4, align 4
  store i32 1, ptr %10, align 4
  br label %82

29:                                               ; preds = %20
  br label %30

30:                                               ; preds = %29, %3
  %31 = load ptr, ptr %8, align 8, !tbaa !19
  %32 = getelementptr inbounds nuw %struct.SCTPContext, ptr %31, i32 0, i32 5
  %33 = load i32, ptr %32, align 8, !tbaa !25
  %34 = icmp ne i32 %33, 0
  br i1 %34, label %35, label %62

35:                                               ; preds = %30
  call void @llvm.lifetime.start.p0(i64 32, ptr %11) #10
  call void @llvm.memset.p0.i64(ptr align 4 %11, i8 0, i64 32, i1 false)
  %36 = load ptr, ptr %6, align 8, !tbaa !9
  %37 = load i16, ptr %36, align 1, !tbaa !47
  %38 = call zeroext i16 @av_bswap16(i16 noundef zeroext %37) #12
  %39 = getelementptr inbounds nuw %struct.sctp_sndrcvinfo, ptr %11, i32 0, i32 0
  store i16 %38, ptr %39, align 4, !tbaa !45
  %40 = getelementptr inbounds nuw %struct.sctp_sndrcvinfo, ptr %11, i32 0, i32 0
  %41 = load i16, ptr %40, align 4, !tbaa !45
  %42 = zext i16 %41 to i32
  %43 = load ptr, ptr %8, align 8, !tbaa !19
  %44 = getelementptr inbounds nuw %struct.SCTPContext, ptr %43, i32 0, i32 5
  %45 = load i32, ptr %44, align 8, !tbaa !25
  %46 = icmp sgt i32 %42, %45
  br i1 %46, label %47, label %49

47:                                               ; preds = %35
  %48 = load ptr, ptr %5, align 8, !tbaa !4
  call void (ptr, i32, ptr, ...) @av_log(ptr noundef %48, i32 noundef 16, ptr noundef @.str.8)
  store i32 -558323010, ptr %4, align 4
  store i32 1, ptr %10, align 4
  br label %59

49:                                               ; preds = %35
  %50 = load ptr, ptr %8, align 8, !tbaa !19
  %51 = getelementptr inbounds nuw %struct.SCTPContext, ptr %50, i32 0, i32 1
  %52 = load i32, ptr %51, align 8, !tbaa !43
  %53 = load ptr, ptr %6, align 8, !tbaa !9
  %54 = getelementptr inbounds i8, ptr %53, i64 2
  %55 = load i32, ptr %7, align 4, !tbaa !11
  %56 = sub nsw i32 %55, 2
  %57 = sext i32 %56 to i64
  %58 = call i32 @ff_sctp_send(i32 noundef %52, ptr noundef %54, i64 noundef %57, ptr noundef %11, i32 noundef 128)
  store i32 %58, ptr %9, align 4, !tbaa !11
  store i32 0, ptr %10, align 4
  br label %59

59:                                               ; preds = %49, %47
  call void @llvm.lifetime.end.p0(i64 32, ptr %11) #10
  %60 = load i32, ptr %10, align 4
  switch i32 %60, label %82 [
    i32 0, label %61
  ]

61:                                               ; preds = %59
  br label %71

62:                                               ; preds = %30
  %63 = load ptr, ptr %8, align 8, !tbaa !19
  %64 = getelementptr inbounds nuw %struct.SCTPContext, ptr %63, i32 0, i32 1
  %65 = load i32, ptr %64, align 8, !tbaa !43
  %66 = load ptr, ptr %6, align 8, !tbaa !9
  %67 = load i32, ptr %7, align 4, !tbaa !11
  %68 = sext i32 %67 to i64
  %69 = call i64 @send(i32 noundef %65, ptr noundef %66, i64 noundef %68, i32 noundef 16384)
  %70 = trunc i64 %69 to i32
  store i32 %70, ptr %9, align 4, !tbaa !11
  br label %71

71:                                               ; preds = %62, %61
  %72 = load i32, ptr %9, align 4, !tbaa !11
  %73 = icmp slt i32 %72, 0
  br i1 %73, label %74, label %78

74:                                               ; preds = %71
  %75 = call ptr @__errno_location() #12
  %76 = load i32, ptr %75, align 4, !tbaa !11
  %77 = sub nsw i32 0, %76
  br label %80

78:                                               ; preds = %71
  %79 = load i32, ptr %9, align 4, !tbaa !11
  br label %80

80:                                               ; preds = %78, %74
  %81 = phi i32 [ %77, %74 ], [ %79, %78 ]
  store i32 %81, ptr %4, align 4
  store i32 1, ptr %10, align 4
  br label %82

82:                                               ; preds = %80, %59, %27
  call void @llvm.lifetime.end.p0(i64 4, ptr %9) #10
  call void @llvm.lifetime.end.p0(i64 8, ptr %8) #10
  %83 = load i32, ptr %4, align 4
  ret i32 %83
}