; Function Attrs: nounwind uwtable
define internal range(i32 -2147483647, -2147483648) i32 @sctp_write(ptr noundef %0, ptr noundef %1, i32 noundef %2) #0 {
  %4 = alloca %struct.msghdr, align 8
  %5 = alloca %struct.iovec, align 8
  %6 = alloca [48 x i8], align 16
  %7 = alloca %struct.pollfd, align 4
  %8 = getelementptr inbounds nuw i8, ptr %0, i64 16
  %9 = load ptr, ptr %8, align 8, !tbaa !4
  %10 = getelementptr inbounds nuw i8, ptr %0, i64 32
  %11 = load i32, ptr %10, align 8, !tbaa !39
  %12 = and i32 %11, 8
  %.not = icmp eq i32 %12, 0
  br i1 %.not, label %13, label %sctp_wait_fd.exit.thread25

13:                                               ; preds = %3
  %14 = getelementptr inbounds nuw i8, ptr %9, i64 8
  %15 = load i32, ptr %14, align 8, !tbaa !38
  call void @llvm.lifetime.start.p0(i64 8, ptr nonnull %7) #12
  store i32 %15, ptr %7, align 4, !tbaa !40
  %16 = getelementptr inbounds nuw i8, ptr %7, i64 4
  store i16 4, ptr %16, align 4, !tbaa !42
  %17 = getelementptr inbounds nuw i8, ptr %7, i64 6
  store i16 0, ptr %17, align 2, !tbaa !43
  %18 = call i32 @poll(ptr noundef nonnull %7, i64 noundef 1, i32 noundef 100) #12
  %19 = icmp slt i32 %18, 0
  br i1 %19, label %sctp_wait_fd.exit, label %20

20:                                               ; preds = %13
  %21 = load i16, ptr %17, align 2, !tbaa !43
  %22 = and i16 %21, 4
  %.not5.i = icmp eq i16 %22, 0
  call void @llvm.lifetime.end.p0(i64 8, ptr nonnull %7) #12
  br i1 %.not5.i, label %sctp_wait_fd.exit.thread, label %sctp_wait_fd.exit.thread25

sctp_wait_fd.exit:                                ; preds = %13
  %23 = tail call ptr @__errno_location() #14
  %24 = load i32, ptr %23, align 4, !tbaa !15
  %25 = sub nsw i32 0, %24
  call void @llvm.lifetime.end.p0(i64 8, ptr nonnull %7) #12
  %26 = icmp sgt i32 %24, 0
  br i1 %26, label %sctp_wait_fd.exit.thread, label %sctp_wait_fd.exit.thread25

sctp_wait_fd.exit.thread25:                       ; preds = %20, %sctp_wait_fd.exit, %3
  %27 = getelementptr inbounds nuw i8, ptr %9, i64 24
  %28 = load i32, ptr %27, align 8, !tbaa !20
  %.not23 = icmp eq i32 %28, 0
  br i1 %.not23, label %47, label %29

29:                                               ; preds = %sctp_wait_fd.exit.thread25
  %30 = load i16, ptr %1, align 1, !tbaa !55
  %31 = call i16 @llvm.bswap.i16(i16 %30)
  %32 = zext i16 %31 to i32
  %.not24 = icmp slt i32 %28, %32
  br i1 %.not24, label %.thread, label %33

.thread:                                          ; preds = %29
  call void (ptr, i32, ptr, ...) @av_log(ptr noundef nonnull %0, i32 noundef 16, ptr noundef nonnull @.str.8) #12
  br label %sctp_wait_fd.exit.thread

33:                                               ; preds = %29
  %34 = getelementptr inbounds nuw i8, ptr %9, i64 8
  %35 = load i32, ptr %34, align 8, !tbaa !38
  %36 = getelementptr inbounds nuw i8, ptr %1, i64 2
  %37 = add nsw i32 %2, -2
  %38 = sext i32 %37 to i64
  call void @llvm.lifetime.start.p0(i64 56, ptr nonnull %4) #12
  %39 = getelementptr inbounds nuw i8, ptr %4, i64 8
  call void @llvm.memset.p0.i64(ptr noundef nonnull align 8 dereferenceable(48) %39, i8 0, i64 48, i1 false)
  call void @llvm.lifetime.start.p0(i64 16, ptr nonnull %5) #12
  store ptr null, ptr %4, align 8, !tbaa !47
  store i32 0, ptr %39, align 8, !tbaa !56
  %40 = getelementptr inbounds nuw i8, ptr %4, i64 16
  store ptr %5, ptr %40, align 8, !tbaa !50
  store ptr %36, ptr %5, align 8, !tbaa !44
  %41 = getelementptr inbounds nuw i8, ptr %5, i64 8
  store i64 %38, ptr %41, align 8, !tbaa !46
  %42 = getelementptr inbounds nuw i8, ptr %4, i64 24
  store i64 1, ptr %42, align 8, !tbaa !51
  %43 = getelementptr inbounds nuw i8, ptr %4, i64 40
  call void @llvm.lifetime.start.p0(i64 48, ptr nonnull %6) #12
  %44 = getelementptr inbounds nuw i8, ptr %4, i64 32
  store ptr %6, ptr %44, align 8, !tbaa !52
  %45 = getelementptr inbounds nuw i8, ptr %4, i64 48
  store i32 0, ptr %45, align 8, !tbaa !57
  store i64 48, ptr %43, align 8, !tbaa !53
  call void @llvm.lifetime.end.p0(i64 48, ptr nonnull %6) #12
  %46 = call i64 @sendmsg(i32 noundef %35, ptr noundef nonnull %4, i32 noundef 16512) #12
  call void @llvm.lifetime.end.p0(i64 16, ptr nonnull %5) #12
  call void @llvm.lifetime.end.p0(i64 56, ptr nonnull %4) #12
  br label %52

47:                                               ; preds = %sctp_wait_fd.exit.thread25
  %48 = getelementptr inbounds nuw i8, ptr %9, i64 8
  %49 = load i32, ptr %48, align 8, !tbaa !38
  %50 = sext i32 %2 to i64
  %51 = call i64 @send(i32 noundef %49, ptr noundef %1, i64 noundef %50, i32 noundef 16384) #12
  br label %52

52:                                               ; preds = %33, %47
  %.2.in = phi i64 [ %46, %33 ], [ %51, %47 ]
  %.2 = trunc i64 %.2.in to i32
  %53 = icmp slt i32 %.2, 0
  br i1 %53, label %54, label %sctp_wait_fd.exit.thread

54:                                               ; preds = %52
  %55 = tail call ptr @__errno_location() #14
  %56 = load i32, ptr %55, align 4, !tbaa !15
  %57 = sub nsw i32 0, %56
  br label %sctp_wait_fd.exit.thread

sctp_wait_fd.exit.thread:                         ; preds = %20, %.thread, %54, %52, %sctp_wait_fd.exit
  %.019 = phi i32 [ %25, %sctp_wait_fd.exit ], [ %57, %54 ], [ %.2, %52 ], [ -558323010, %.thread ], [ -11, %20 ]
  ret i32 %.019
}